target datalayout = "e-m:e-p270:32:32-p271:32:32-p272:64:64-i64:64-i128:128-f80:128-n8:16:32:64-S128"
target triple = "x86_64-pc-linux-gnu"

%class.anon.935 = type { ptr }
%"struct.__gnu_cxx::__ops::_Iter_comp_iter.945" = type { %class.anon.935 }

; Function Attrs: mustprogress nounwind uwtable
define linkonce_odr hidden noundef ptr @_ZNSt11__copy_moveILb1ELb1ESt26random_access_iterator_tagE8__copy_mIPN4llvm10BasicBlockEEEPT_PKS6_S9_S7_(ptr noundef %0, ptr noundef %1, ptr noundef %2) #1 comdat align 2 {
  %4 = alloca ptr, align 8
  %5 = alloca ptr, align 8
  %6 = alloca ptr, align 8
  %7 = alloca i64, align 8
  store ptr %0, ptr %4, align 8
  store ptr %1, ptr %5, align 8
  store ptr %2, ptr %6, align 8
  %8 = load ptr, ptr %5, align 8
  %9 = load ptr, ptr %4, align 8
  %10 = ptrtoint ptr %8 to i64
  %11 = ptrtoint ptr %9 to i64
  %12 = sub i64 %10, %11
  %13 = sdiv exact i64 %12, 8
  store i64 %13, ptr %7, align 8
  %14 = load i64, ptr %7, align 8
  %15 = icmp ne i64 %14, 0
  br i1 %15, label %16, label %21

16:                                               ; preds = %3
  %17 = load ptr, ptr %6, align 8
  %18 = load ptr, ptr %4, align 8
  %19 = load i64, ptr %7, align 8
  %20 = mul i64 8, %19
  call void @llvm.memmove.p0.p0.i64(ptr align 8 %17, ptr align 8 %18, i64 %20, i1 false)
  br label %21

21:                                               ; preds = %16, %3
  %22 = load ptr, ptr %6, align 8
  %23 = load i64, ptr %7, align 8
  %24 = getelementptr inbounds ptr, ptr %22, i64 %23
  ret ptr %24
}

; Function Attrs: mustprogress nounwind uwtable
define linkonce_odr noundef ptr @_ZSt14__copy_move_a2ILb1EPPN4llvm10BasicBlockES3_ET1_T0_S5_S4_(ptr noundef %0, ptr noundef %1, ptr noundef %2) #1 comdat {
  %4 = alloca ptr, align 8
  %5 = alloca ptr, align 8
  %6 = alloca ptr, align 8
  store ptr %0, ptr %4, align 8
  store ptr %1, ptr %5, align 8
  store ptr %2, ptr %6, align 8
  %7 = load ptr, ptr %4, align 8
  %8 = load ptr, ptr %5, align 8
  %9 = load ptr, ptr %6, align 8
  %10 = call noundef ptr @_ZNSt11__copy_moveILb1ELb1ESt26random_access_iterator_tagE8__copy_mIPN4llvm10BasicBlockEEEPT_PKS6_S9_S7_(ptr noundef %7, ptr noundef %8, ptr noundef %9)
  ret ptr %10
}

; Function Attrs: mustprogress nounwind uwtable
define linkonce_odr noundef ptr @_ZSt12__niter_wrapIPPN4llvm10BasicBlockEET_RKS4_S4_(ptr noundef nonnull align 8 dereferenceable(8) %0, ptr noundef %1) #1 comdat {
  %3 = alloca ptr, align 8
  %4 = alloca ptr, align 8
  store ptr %0, ptr %3, align 8
  store ptr %1, ptr %4, align 8
  %5 = load ptr, ptr %4, align 8
  ret ptr %5
}

; Function Attrs: mustprogress nounwind uwtable
define linkonce_odr noundef ptr @_ZSt14__copy_move_a1ILb1EPPN4llvm10BasicBlockES3_ET1_T0_S5_S4_(ptr noundef %0, ptr noundef %1, ptr noundef %2) #1 comdat {
  %4 = alloca ptr, align 8
  %5 = alloca ptr, align 8
  %6 = alloca ptr, align 8
  store ptr %0, ptr %4, align 8
  store ptr %1, ptr %5, align 8
  store ptr %2, ptr %6, align 8
  %7 = load ptr, ptr %4, align 8
  %8 = load ptr, ptr %5, align 8
  %9 = load ptr, ptr %6, align 8
  %10 = call noundef ptr @_ZSt14__copy_move_a2ILb1EPPN4llvm10BasicBlockES3_ET1_T0_S5_S4_(ptr noundef %7, ptr noundef %8, ptr noundef %9)
  ret ptr %10
}

; Function Attrs: mustprogress nounwind uwtable
define linkonce_odr noundef ptr @_ZSt12__niter_baseIPPN4llvm10BasicBlockEET_S4_(ptr noundef %0) #1 comdat {
  %2 = alloca ptr, align 8
  store ptr %0, ptr %2, align 8
  %3 = load ptr, ptr %2, align 8
  ret ptr %3
}

; Function Attrs: mustprogress nounwind uwtable
define linkonce_odr noundef ptr @_ZSt13__copy_move_aILb1EPPN4llvm10BasicBlockES3_ET1_T0_S5_S4_(ptr noundef %0, ptr noundef %1, ptr noundef %2) #1 comdat {
  %4 = alloca ptr, align 8
  %5 = alloca ptr, align 8
  %6 = alloca ptr, align 8
  store ptr %0, ptr %4, align 8
  store ptr %1, ptr %5, align 8
  store ptr %2, ptr %6, align 8
  %7 = load ptr, ptr %4, align 8
  %8 = call noundef ptr @_ZSt12__niter_baseIPPN4llvm10BasicBlockEET_S4_(ptr noundef %7) #2
  %9 = load ptr, ptr %5, align 8
  %10 = call noundef ptr @_ZSt12__niter_baseIPPN4llvm10BasicBlockEET_S4_(ptr noundef %9) #2
  %11 = load ptr, ptr %6, align 8
  %12 = call noundef ptr @_ZSt12__niter_baseIPPN4llvm10BasicBlockEET_S4_(ptr noundef %11) #2
  %13 = call noundef ptr @_ZSt14__copy_move_a1ILb1EPPN4llvm10BasicBlockES3_ET1_T0_S5_S4_(ptr noundef %8, ptr noundef %10, ptr noundef %12)
  %14 = call noundef ptr @_ZSt12__niter_wrapIPPN4llvm10BasicBlockEET_RKS4_S4_(ptr noundef nonnull align 8 dereferenceable(8) %6, ptr noundef %13)
  ret ptr %14
}

; Function Attrs: mustprogress nounwind uwtable
define linkonce_odr noundef ptr @_ZSt12__miter_baseIPPN4llvm10BasicBlockEET_S4_(ptr noundef %0) #1 comdat {
  %2 = alloca ptr, align 8
  store ptr %0, ptr %2, align 8
  %3 = load ptr, ptr %2, align 8
  ret ptr %3
}

; Function Attrs: mustprogress nounwind uwtable
define internal noundef zeroext i1 @"_ZZL24rebuildLoopAfterUnswitchRN4llvm4LoopENS_8ArrayRefIPNS_10BasicBlockEEERNS_8LoopInfoERNS_15SmallVectorImplIPS0_EEPNS_15ScalarEvolutionEENK3$_2clES4_S4_"(ptr noundef nonnull align 8 dereferenceable(8) %0, ptr noundef %1, ptr noundef %2) #1 align 2 {
  %4 = alloca ptr, align 8
  %5 = alloca ptr, align 8
  %6 = alloca ptr, align 8
  store ptr %0, ptr %4, align 8
  store ptr %1, ptr %5, align 8
  store ptr %2, ptr %6, align 8
  %7 = load ptr, ptr %4, align 8
  %8 = getelementptr inbounds nuw %class.anon.935, ptr %7, i32 0, i32 0
  %9 = load ptr, ptr %8, align 8
  %10 = load ptr, ptr %5, align 8
  %11 = call noundef i32 @_ZNK4llvm12LoopInfoBaseINS_10BasicBlockENS_4LoopEE12getLoopDepthEPKS1_(ptr noundef nonnull align 8 dereferenceable(144) %9, ptr noundef %10)
  %12 = getelementptr inbounds nuw %class.anon.935, ptr %7, i32 0, i32 0
  %13 = load ptr, ptr %12, align 8
  %14 = load ptr, ptr %6, align 8
  %15 = call noundef i32 @_ZNK4llvm12LoopInfoBaseINS_10BasicBlockENS_4LoopEE12getLoopDepthEPKS1_(ptr noundef nonnull align 8 dereferenceable(144) %13, ptr noundef %14)
  %16 = icmp ult i32 %11, %15
  ret i1 %16
}

; Function Attrs: mustprogress nounwind uwtable
define linkonce_odr noundef ptr @_ZSt4moveIPPN4llvm10BasicBlockES3_ET0_T_S5_S4_(ptr noundef %0, ptr noundef %1, ptr noundef %2) #1 comdat {
  %4 = alloca ptr, align 8
  %5 = alloca ptr, align 8
  %6 = alloca ptr, align 8
  store ptr %0, ptr %4, align 8
  store ptr %1, ptr %5, align 8
  store ptr %2, ptr %6, align 8
  %7 = load ptr, ptr %4, align 8
  %8 = call noundef ptr @_ZSt12__miter_baseIPPN4llvm10BasicBlockEET_S4_(ptr noundef %7)
  %9 = load ptr, ptr %5, align 8
  %10 = call noundef ptr @_ZSt12__miter_baseIPPN4llvm10BasicBlockEET_S4_(ptr noundef %9)
  %11 = load ptr, ptr %6, align 8
  %12 = call noundef ptr @_ZSt13__copy_move_aILb1EPPN4llvm10BasicBlockES3_ET1_T0_S5_S4_(ptr noundef %8, ptr noundef %10, ptr noundef %11)
  ret ptr %12
}

; Function Attrs: mustprogress nounwind uwtable
define internal noundef zeroext i1 @"_ZN9__gnu_cxx5__ops15_Iter_comp_iterIZL24rebuildLoopAfterUnswitchRN4llvm4LoopENS2_8ArrayRefIPNS2_10BasicBlockEEERNS2_8LoopInfoERNS2_15SmallVectorImplIPS3_EEPNS2_15ScalarEvolutionEE3$_2EclIPS7_SK_EEbT_T0_"(ptr noundef nonnull align 8 dereferenceable(8) %0, ptr noundef %1, ptr noundef %2) #1 align 2 {
  %4 = alloca ptr, align 8
  %5 = alloca ptr, align 8
  %6 = alloca ptr, align 8
  store ptr %0, ptr %4, align 8
  store ptr %1, ptr %5, align 8
  store ptr %2, ptr %6, align 8
  %7 = load ptr, ptr %4, align 8
  %8 = getelementptr inbounds nuw %"struct.__gnu_cxx::__ops::_Iter_comp_iter.945", ptr %7, i32 0, i32 0
  %9 = load ptr, ptr %5, align 8
  %10 = load ptr, ptr %9, align 8
  %11 = load ptr, ptr %6, align 8
  %12 = load ptr, ptr %11, align 8
  %13 = call noundef zeroext i1 @"_ZZL24rebuildLoopAfterUnswitchRN4llvm4LoopENS_8ArrayRefIPNS_10BasicBlockEEERNS_8LoopInfoERNS_15SmallVectorImplIPS0_EEPNS_15ScalarEvolutionEENK3$_2clES4_S4_"(ptr noundef nonnull align 8 dereferenceable(8) %8, ptr noundef %10, ptr noundef %12)
  ret i1 %13
}

; Function Attrs: mustprogress nounwind uwtable
define linkonce_odr noundef nonnull align 8 dereferenceable(8) ptr @_ZSt3minIlERKT_S2_S2_(ptr noundef nonnull align 8 dereferenceable(8) %0, ptr noundef nonnull align 8 dereferenceable(8) %1) #1 comdat {
  %3 = alloca ptr, align 8
  %4 = alloca ptr, align 8
  %5 = alloca ptr, align 8
  store ptr %0, ptr %4, align 8
  store ptr %1, ptr %5, align 8
  %6 = load ptr, ptr %5, align 8
  %7 = load i64, ptr %6, align 8
  %8 = load ptr, ptr %4, align 8
  %9 = load i64, ptr %8, align 8
  %10 = icmp slt i64 %7, %9
  br i1 %10, label %11, label %13

11:                                               ; preds = %2
  %12 = load ptr, ptr %5, align 8
  store ptr %12, ptr %3, align 8
  br label %15

13:                                               ; preds = %2
  %14 = load ptr, ptr %4, align 8
  store ptr %14, ptr %3, align 8
  br label %15

15:                                               ; preds = %13, %11
  %16 = load ptr, ptr %3, align 8
  ret ptr %16
}

; Function Attrs: mustprogress nounwind uwtable
define internal noundef ptr @"_ZSt12__move_mergeIPPN4llvm10BasicBlockES3_N9__gnu_cxx5__ops15_Iter_comp_iterIZL24rebuildLoopAfterUnswitchRNS0_4LoopENS0_8ArrayRefIS2_EERNS0_8LoopInfoERNS0_15SmallVectorImplIPS7_EEPNS0_15ScalarEvolutionEE3$_2EEET0_T_SM_SM_SM_SL_T1_"(ptr noundef %0, ptr noundef %1, ptr noundef %2, ptr noundef %3, ptr noundef %4, ptr %5) #1 {
  %7 = alloca %"struct.__gnu_cxx::__ops::_Iter_comp_iter.945", align 8
  %8 = alloca ptr, align 8
  %9 = alloca ptr, align 8
  %10 = alloca ptr, align 8
  %11 = alloca ptr, align 8
  %12 = alloca ptr, align 8
  %13 = getelementptr inbounds nuw %"struct.__gnu_cxx::__ops::_Iter_comp_iter.945", ptr %7, i32 0, i32 0
  %14 = getelementptr inbounds nuw %class.anon.935, ptr %13, i32 0, i32 0
  store ptr %5, ptr %14, align 8
  store ptr %0, ptr %8, align 8
  store ptr %1, ptr %9, align 8
  store ptr %2, ptr %10, align 8
  store ptr %3, ptr %11, align 8
  store ptr %4, ptr %12, align 8
  br label %15

15:                                               ; preds = %41, %6
  %16 = load ptr, ptr %8, align 8
  %17 = load ptr, ptr %9, align 8
  %18 = icmp ne ptr %16, %17
  br i1 %18, label %19, label %23

19:                                               ; preds = %15
  %20 = load ptr, ptr %10, align 8
  %21 = load ptr, ptr %11, align 8
  %22 = icmp ne ptr %20, %21
  br label %23

23:                                               ; preds = %19, %15
  %24 = phi i1 [ false, %15 ], [ %22, %19 ]
  br i1 %24, label %25, label %44

25:                                               ; preds = %23
  %26 = load ptr, ptr %10, align 8
  %27 = load ptr, ptr %8, align 8
  %28 = call noundef zeroext i1 @"_ZN9__gnu_cxx5__ops15_Iter_comp_iterIZL24rebuildLoopAfterUnswitchRN4llvm4LoopENS2_8ArrayRefIPNS2_10BasicBlockEEERNS2_8LoopInfoERNS2_15SmallVectorImplIPS3_EEPNS2_15ScalarEvolutionEE3$_2EclIPS7_SK_EEbT_T0_"(ptr noundef nonnull align 8 dereferenceable(8) %7, ptr noundef %26, ptr noundef %27)
  br i1 %28, label %29, label %35

29:                                               ; preds = %25
  %30 = load ptr, ptr %10, align 8
  %31 = load ptr, ptr %30, align 8
  %32 = load ptr, ptr %12, align 8
  store ptr %31, ptr %32, align 8
  %33 = load ptr, ptr %10, align 8
  %34 = getelementptr inbounds ptr, ptr %33, i32 1
  store ptr %34, ptr %10, align 8
  br label %41

35:                                               ; preds = %25
  %36 = load ptr, ptr %8, align 8
  %37 = load ptr, ptr %36, align 8
  %38 = load ptr, ptr %12, align 8
  store ptr %37, ptr %38, align 8
  %39 = load ptr, ptr %8, align 8
  %40 = getelementptr inbounds ptr, ptr %39, i32 1
  store ptr %40, ptr %8, align 8
  br label %41

41:                                               ; preds = %35, %29
  %42 = load ptr, ptr %12, align 8
  %43 = getelementptr inbounds ptr, ptr %42, i32 1
  store ptr %43, ptr %12, align 8
  br label %15, !llvm.loop !205

44:                                               ; preds = %23
  %45 = load ptr, ptr %10, align 8
  %46 = load ptr, ptr %11, align 8
  %47 = load ptr, ptr %8, align 8
  %48 = load ptr, ptr %9, align 8
  %49 = load ptr, ptr %12, align 8
  %50 = call noundef ptr @_ZSt4moveIPPN4llvm10BasicBlockES3_ET0_T_S5_S4_(ptr noundef %47, ptr noundef %48, ptr noundef %49)
  %51 = call noundef ptr @_ZSt4moveIPPN4llvm10BasicBlockES3_ET0_T_S5_S4_(ptr noundef %45, ptr noundef %46, ptr noundef %50)
  ret ptr %51
}

; Function Attrs: mustprogress nounwind uwtable
define internal void @"_ZSt17__merge_sort_loopIPPN4llvm10BasicBlockES3_lN9__gnu_cxx5__ops15_Iter_comp_iterIZL24rebuildLoopAfterUnswitchRNS0_4LoopENS0_8ArrayRefIS2_EERNS0_8LoopInfoERNS0_15SmallVectorImplIPS7_EEPNS0_15ScalarEvolutionEE3$_2EEEvT_SL_T0_T1_T2_"(ptr noundef %0, ptr noundef %1, ptr noundef %2, i64 noundef %3, ptr %4) #1 {
  %6 = alloca %"struct.__gnu_cxx::__ops::_Iter_comp_iter.945", align 8
  %7 = alloca ptr, align 8
  %8 = alloca ptr, align 8
  %9 = alloca ptr, align 8
  %10 = alloca i64, align 8
  %11 = alloca i64, align 8
  %12 = alloca %"struct.__gnu_cxx::__ops::_Iter_comp_iter.945", align 8
  %13 = alloca i64, align 8
  %14 = alloca %"struct.__gnu_cxx::__ops::_Iter_comp_iter.945", align 8
  %15 = getelementptr inbounds nuw %"struct.__gnu_cxx::__ops::_Iter_comp_iter.945", ptr %6, i32 0, i32 0
  %16 = getelementptr inbounds nuw %class.anon.935, ptr %15, i32 0, i32 0
  store ptr %4, ptr %16, align 8
  store ptr %0, ptr %7, align 8
  store ptr %1, ptr %8, align 8
  store ptr %2, ptr %9, align 8
  store i64 %3, ptr %10, align 8
  %17 = load i64, ptr %10, align 8
  %18 = mul nsw i64 2, %17
  store i64 %18, ptr %11, align 8
  br label %19

19:                                               ; preds = %28, %5
  %20 = load ptr, ptr %8, align 8
  %21 = load ptr, ptr %7, align 8
  %22 = ptrtoint ptr %20 to i64
  %23 = ptrtoint ptr %21 to i64
  %24 = sub i64 %22, %23
  %25 = sdiv exact i64 %24, 8
  %26 = load i64, ptr %11, align 8
  %27 = icmp sge i64 %25, %26
  br i1 %27, label %28, label %47

28:                                               ; preds = %19
  %29 = load ptr, ptr %7, align 8
  %30 = load ptr, ptr %7, align 8
  %31 = load i64, ptr %10, align 8
  %32 = getelementptr inbounds ptr, ptr %30, i64 %31
  %33 = load ptr, ptr %7, align 8
  %34 = load i64, ptr %10, align 8
  %35 = getelementptr inbounds ptr, ptr %33, i64 %34
  %36 = load ptr, ptr %7, align 8
  %37 = load i64, ptr %11, align 8
  %38 = getelementptr inbounds ptr, ptr %36, i64 %37
  %39 = load ptr, ptr %9, align 8
  call void @llvm.memcpy.p0.p0.i64(ptr align 8 %12, ptr align 8 %6, i64 8, i1 false)
  %40 = getelementptr inbounds nuw %"struct.__gnu_cxx::__ops::_Iter_comp_iter.945", ptr %12, i32 0, i32 0
  %41 = getelementptr inbounds nuw %class.anon.935, ptr %40, i32 0, i32 0
  %42 = load ptr, ptr %41, align 8
  %43 = call noundef ptr @"_ZSt12__move_mergeIPPN4llvm10BasicBlockES3_N9__gnu_cxx5__ops15_Iter_comp_iterIZL24rebuildLoopAfterUnswitchRNS0_4LoopENS0_8ArrayRefIS2_EERNS0_8LoopInfoERNS0_15SmallVectorImplIPS7_EEPNS0_15ScalarEvolutionEE3$_2EEET0_T_SM_SM_SM_SL_T1_"(ptr noundef %29, ptr noundef %32, ptr noundef %35, ptr noundef %38, ptr noundef %39, ptr %42)
  store ptr %43, ptr %9, align 8
  %44 = load i64, ptr %11, align 8
  %45 = load ptr, ptr %7, align 8
  %46 = getelementptr inbounds ptr, ptr %45, i64 %44
  store ptr %46, ptr %7, align 8
  br label %19, !llvm.loop !204

47:                                               ; preds = %19
  %48 = load ptr, ptr %8, align 8
  %49 = load ptr, ptr %7, align 8
  %50 = ptrtoint ptr %48 to i64
  %51 = ptrtoint ptr %49 to i64
  %52 = sub i64 %50, %51
  %53 = sdiv exact i64 %52, 8
  store i64 %53, ptr %13, align 8
  %54 = call noundef nonnull align 8 dereferenceable(8) ptr @_ZSt3minIlERKT_S2_S2_(ptr noundef nonnull align 8 dereferenceable(8) %13, ptr noundef nonnull align 8 dereferenceable(8) %10)
  %55 = load i64, ptr %54, align 8
  store i64 %55, ptr %10, align 8
  %56 = load ptr, ptr %7, align 8
  %57 = load ptr, ptr %7, align 8
  %58 = load i64, ptr %10, align 8
  %59 = getelementptr inbounds ptr, ptr %57, i64 %58
  %60 = load ptr, ptr %7, align 8
  %61 = load i64, ptr %10, align 8
  %62 = getelementptr inbounds ptr, ptr %60, i64 %61
  %63 = load ptr, ptr %8, align 8
  %64 = load ptr, ptr %9, align 8
  call void @llvm.memcpy.p0.p0.i64(ptr align 8 %14, ptr align 8 %6, i64 8, i1 false)
  %65 = getelementptr inbounds nuw %"struct.__gnu_cxx::__ops::_Iter_comp_iter.945", ptr %14, i32 0, i32 0
  %66 = getelementptr inbounds nuw %class.anon.935, ptr %65, i32 0, i32 0
  %67 = load ptr, ptr %66, align 8
  %68 = call noundef ptr @"_ZSt12__move_mergeIPPN4llvm10BasicBlockES3_N9__gnu_cxx5__ops15_Iter_comp_iterIZL24rebuildLoopAfterUnswitchRNS0_4LoopENS0_8ArrayRefIS2_EERNS0_8LoopInfoERNS0_15SmallVectorImplIPS7_EEPNS0_15ScalarEvolutionEE3$_2EEET0_T_SM_SM_SM_SL_T1_"(ptr noundef %56, ptr noundef %59, ptr noundef %62, ptr noundef %63, ptr noundef %64, ptr %67)
  ret void
}