; Function Attrs: mustprogress nounwind uwtable
define internal fastcc void @"_ZSt17__merge_sort_loopIPPN4llvm10BasicBlockES3_lN9__gnu_cxx5__ops15_Iter_comp_iterIZL24rebuildLoopAfterUnswitchRNS0_4LoopENS0_8ArrayRefIS2_EERNS0_8LoopInfoERNS0_15SmallVectorImplIPS7_EEPNS0_15ScalarEvolutionEE3$_2EEEvT_SL_T0_T1_T2_"(ptr noundef %0, ptr noundef %1, ptr nocapture noundef writeonly %2, i64 noundef %3, ptr %4) unnamed_addr #0 {
  %6 = shl nsw i64 %3, 1
  %7 = ptrtoint ptr %1 to i64
  %8 = ptrtoint ptr %0 to i64
  %9 = sub i64 %7, %8
  %10 = ashr exact i64 %9, 3
  %.not50 = icmp slt i64 %10, %6
  %.not46 = icmp eq i64 %3, 0
  %or.cond = or i1 %.not50, %.not46
  br i1 %or.cond, label %._crit_edge, label %.lr.ph.i.preheader

.lr.ph.i.preheader:                               ; preds = %5, %"_ZSt12__move_mergeIPPN4llvm10BasicBlockES3_N9__gnu_cxx5__ops15_Iter_comp_iterIZL24rebuildLoopAfterUnswitchRNS0_4LoopENS0_8ArrayRefIS2_EERNS0_8LoopInfoERNS0_15SmallVectorImplIPS7_EEPNS0_15ScalarEvolutionEE3$_2EEET0_T_SM_SM_SM_SL_T1_.exit"
  %.052 = phi ptr [ %12, %"_ZSt12__move_mergeIPPN4llvm10BasicBlockES3_N9__gnu_cxx5__ops15_Iter_comp_iterIZL24rebuildLoopAfterUnswitchRNS0_4LoopENS0_8ArrayRefIS2_EERNS0_8LoopInfoERNS0_15SmallVectorImplIPS7_EEPNS0_15ScalarEvolutionEE3$_2EEET0_T_SM_SM_SM_SL_T1_.exit" ], [ %0, %5 ]
  %.01951 = phi ptr [ %29, %"_ZSt12__move_mergeIPPN4llvm10BasicBlockES3_N9__gnu_cxx5__ops15_Iter_comp_iterIZL24rebuildLoopAfterUnswitchRNS0_4LoopENS0_8ArrayRefIS2_EERNS0_8LoopInfoERNS0_15SmallVectorImplIPS7_EEPNS0_15ScalarEvolutionEE3$_2EEET0_T_SM_SM_SM_SL_T1_.exit" ], [ %2, %5 ]
  %11 = getelementptr inbounds ptr, ptr %.052, i64 %3
  %12 = getelementptr inbounds ptr, ptr %.052, i64 %6
  br label %.lr.ph.i

.lr.ph.i:                                         ; preds = %.lr.ph.i.preheader, %.lr.ph.i
  %.026.i = phi ptr [ %16, %.lr.ph.i ], [ %.01951, %.lr.ph.i.preheader ]
  %.01825.i = phi ptr [ %.1.i, %.lr.ph.i ], [ %.052, %.lr.ph.i.preheader ]
  %.01924.i = phi ptr [ %.120.i, %.lr.ph.i ], [ %11, %.lr.ph.i.preheader ]
  %.019.val.i = load ptr, ptr %.01924.i, align 8
  %.018.val.i = load ptr, ptr %.01825.i, align 8
  %13 = tail call noundef i32 @_ZNK4llvm12LoopInfoBaseINS_10BasicBlockENS_4LoopEE12getLoopDepthEPKS1_(ptr noundef nonnull align 8 dereferenceable(144) %4, ptr noundef %.019.val.i) #19
  %14 = tail call noundef i32 @_ZNK4llvm12LoopInfoBaseINS_10BasicBlockENS_4LoopEE12getLoopDepthEPKS1_(ptr noundef nonnull align 8 dereferenceable(144) %4, ptr noundef %.018.val.i) #19
  %15 = icmp ult i32 %13, %14
  %.sink.in.i = select i1 %15, ptr %.01924.i, ptr %.01825.i
  %.120.idx.i = select i1 %15, i64 8, i64 0
  %.120.i = getelementptr inbounds i8, ptr %.01924.i, i64 %.120.idx.i
  %.1.idx.i = select i1 %15, i64 0, i64 8
  %.1.i = getelementptr inbounds i8, ptr %.01825.i, i64 %.1.idx.i
  %.sink.i = load ptr, ptr %.sink.in.i, align 8
  store ptr %.sink.i, ptr %.026.i, align 8
  %16 = getelementptr inbounds i8, ptr %.026.i, i64 8
  %17 = icmp ne ptr %.1.i, %11
  %18 = icmp ne ptr %.120.i, %12
  %19 = select i1 %17, i1 %18, i1 false
  br i1 %19, label %.lr.ph.i, label %._crit_edge.i.loopexit, !llvm.loop !622

._crit_edge.i.loopexit:                           ; preds = %.lr.ph.i
  %20 = ptrtoint ptr %11 to i64
  %21 = ptrtoint ptr %.1.i to i64
  %22 = sub i64 %20, %21
  %.not.i.i.i.i.i.i = icmp eq ptr %11, %.1.i
  br i1 %.not.i.i.i.i.i.i, label %_ZSt4moveIPPN4llvm10BasicBlockES3_ET0_T_S5_S4_.exit.i, label %23

23:                                               ; preds = %._crit_edge.i.loopexit
  tail call void @llvm.memmove.p0.p0.i64(ptr nonnull align 8 %16, ptr nonnull align 8 %.1.i, i64 %22, i1 false)
  br label %_ZSt4moveIPPN4llvm10BasicBlockES3_ET0_T_S5_S4_.exit.i

_ZSt4moveIPPN4llvm10BasicBlockES3_ET0_T_S5_S4_.exit.i: ; preds = %23, %._crit_edge.i.loopexit
  %24 = getelementptr inbounds i8, ptr %16, i64 %22
  %25 = ptrtoint ptr %12 to i64
  %26 = ptrtoint ptr %.120.i to i64
  %27 = sub i64 %25, %26
  %.not.i.i.i.i.i21.i = icmp eq ptr %12, %.120.i
  br i1 %.not.i.i.i.i.i21.i, label %"_ZSt12__move_mergeIPPN4llvm10BasicBlockES3_N9__gnu_cxx5__ops15_Iter_comp_iterIZL24rebuildLoopAfterUnswitchRNS0_4LoopENS0_8ArrayRefIS2_EERNS0_8LoopInfoERNS0_15SmallVectorImplIPS7_EEPNS0_15ScalarEvolutionEE3$_2EEET0_T_SM_SM_SM_SL_T1_.exit", label %28

28:                                               ; preds = %_ZSt4moveIPPN4llvm10BasicBlockES3_ET0_T_S5_S4_.exit.i
  tail call void @llvm.memmove.p0.p0.i64(ptr nonnull align 8 %24, ptr nonnull align 8 %.120.i, i64 %27, i1 false)
  br label %"_ZSt12__move_mergeIPPN4llvm10BasicBlockES3_N9__gnu_cxx5__ops15_Iter_comp_iterIZL24rebuildLoopAfterUnswitchRNS0_4LoopENS0_8ArrayRefIS2_EERNS0_8LoopInfoERNS0_15SmallVectorImplIPS7_EEPNS0_15ScalarEvolutionEE3$_2EEET0_T_SM_SM_SM_SL_T1_.exit"

"_ZSt12__move_mergeIPPN4llvm10BasicBlockES3_N9__gnu_cxx5__ops15_Iter_comp_iterIZL24rebuildLoopAfterUnswitchRNS0_4LoopENS0_8ArrayRefIS2_EERNS0_8LoopInfoERNS0_15SmallVectorImplIPS7_EEPNS0_15ScalarEvolutionEE3$_2EEET0_T_SM_SM_SM_SL_T1_.exit": ; preds = %_ZSt4moveIPPN4llvm10BasicBlockES3_ET0_T_S5_S4_.exit.i, %28
  %29 = getelementptr inbounds i8, ptr %24, i64 %27
  %30 = sub i64 %7, %25
  %31 = ashr exact i64 %30, 3
  %.not = icmp slt i64 %31, %6
  br i1 %.not, label %._crit_edge, label %.lr.ph.i.preheader, !llvm.loop !623

._crit_edge:                                      ; preds = %"_ZSt12__move_mergeIPPN4llvm10BasicBlockES3_N9__gnu_cxx5__ops15_Iter_comp_iterIZL24rebuildLoopAfterUnswitchRNS0_4LoopENS0_8ArrayRefIS2_EERNS0_8LoopInfoERNS0_15SmallVectorImplIPS7_EEPNS0_15ScalarEvolutionEE3$_2EEET0_T_SM_SM_SM_SL_T1_.exit", %5
  %.019.lcssa = phi ptr [ %2, %5 ], [ %29, %"_ZSt12__move_mergeIPPN4llvm10BasicBlockES3_N9__gnu_cxx5__ops15_Iter_comp_iterIZL24rebuildLoopAfterUnswitchRNS0_4LoopENS0_8ArrayRefIS2_EERNS0_8LoopInfoERNS0_15SmallVectorImplIPS7_EEPNS0_15ScalarEvolutionEE3$_2EEET0_T_SM_SM_SM_SL_T1_.exit" ]
  %.0.lcssa = phi ptr [ %0, %5 ], [ %12, %"_ZSt12__move_mergeIPPN4llvm10BasicBlockES3_N9__gnu_cxx5__ops15_Iter_comp_iterIZL24rebuildLoopAfterUnswitchRNS0_4LoopENS0_8ArrayRefIS2_EERNS0_8LoopInfoERNS0_15SmallVectorImplIPS7_EEPNS0_15ScalarEvolutionEE3$_2EEET0_T_SM_SM_SM_SL_T1_.exit" ]
  %.lcssa48 = phi i64 [ %10, %5 ], [ %31, %"_ZSt12__move_mergeIPPN4llvm10BasicBlockES3_N9__gnu_cxx5__ops15_Iter_comp_iterIZL24rebuildLoopAfterUnswitchRNS0_4LoopENS0_8ArrayRefIS2_EERNS0_8LoopInfoERNS0_15SmallVectorImplIPS7_EEPNS0_15ScalarEvolutionEE3$_2EEET0_T_SM_SM_SM_SL_T1_.exit" ]
  %.sroa.speculated = tail call i64 @llvm.smin.i64(i64 %3, i64 %.lcssa48)
  %32 = getelementptr inbounds ptr, ptr %.0.lcssa, i64 %.sroa.speculated
  %33 = icmp ne i64 %.sroa.speculated, 0
  %34 = icmp ne ptr %32, %1
  %35 = and i1 %33, %34
  br i1 %35, label %.lr.ph.i29, label %._crit_edge.i22

.lr.ph.i29:                                       ; preds = %._crit_edge, %.lr.ph.i29
  %.026.i30 = phi ptr [ %39, %.lr.ph.i29 ], [ %.019.lcssa, %._crit_edge ]
  %.01825.i31 = phi ptr [ %.1.i39, %.lr.ph.i29 ], [ %.0.lcssa, %._crit_edge ]
  %.01924.i32 = phi ptr [ %.120.i37, %.lr.ph.i29 ], [ %32, %._crit_edge ]
  %.019.val.i33 = load ptr, ptr %.01924.i32, align 8
  %.018.val.i34 = load ptr, ptr %.01825.i31, align 8
  %36 = tail call noundef i32 @_ZNK4llvm12LoopInfoBaseINS_10BasicBlockENS_4LoopEE12getLoopDepthEPKS1_(ptr noundef nonnull align 8 dereferenceable(144) %4, ptr noundef %.019.val.i33) #19
  %37 = tail call noundef i32 @_ZNK4llvm12LoopInfoBaseINS_10BasicBlockENS_4LoopEE12getLoopDepthEPKS1_(ptr noundef nonnull align 8 dereferenceable(144) %4, ptr noundef %.018.val.i34) #19
  %38 = icmp ult i32 %36, %37
  %.sink.in.i35 = select i1 %38, ptr %.01924.i32, ptr %.01825.i31
  %.120.idx.i36 = select i1 %38, i64 8, i64 0
  %.120.i37 = getelementptr inbounds i8, ptr %.01924.i32, i64 %.120.idx.i36
  %.1.idx.i38 = select i1 %38, i64 0, i64 8
  %.1.i39 = getelementptr inbounds i8, ptr %.01825.i31, i64 %.1.idx.i38
  %.sink.i40 = load ptr, ptr %.sink.in.i35, align 8
  store ptr %.sink.i40, ptr %.026.i30, align 8
  %39 = getelementptr inbounds i8, ptr %.026.i30, i64 8
  %40 = icmp ne ptr %.1.i39, %32
  %41 = icmp ne ptr %.120.i37, %1
  %42 = select i1 %40, i1 %41, i1 false
  br i1 %42, label %.lr.ph.i29, label %._crit_edge.i22, !llvm.loop !622

._crit_edge.i22:                                  ; preds = %.lr.ph.i29, %._crit_edge
  %.019.lcssa.i23 = phi ptr [ %32, %._crit_edge ], [ %.120.i37, %.lr.ph.i29 ]
  %.018.lcssa.i24 = phi ptr [ %.0.lcssa, %._crit_edge ], [ %.1.i39, %.lr.ph.i29 ]
  %.0.lcssa.i25 = phi ptr [ %.019.lcssa, %._crit_edge ], [ %39, %.lr.ph.i29 ]
  %43 = ptrtoint ptr %32 to i64
  %44 = ptrtoint ptr %.018.lcssa.i24 to i64
  %45 = sub i64 %43, %44
  %.not.i.i.i.i.i.i26 = icmp eq ptr %32, %.018.lcssa.i24
  br i1 %.not.i.i.i.i.i.i26, label %_ZSt4moveIPPN4llvm10BasicBlockES3_ET0_T_S5_S4_.exit.i27, label %46

46:                                               ; preds = %._crit_edge.i22
  tail call void @llvm.memmove.p0.p0.i64(ptr align 8 %.0.lcssa.i25, ptr align 8 %.018.lcssa.i24, i64 %45, i1 false)
  br label %_ZSt4moveIPPN4llvm10BasicBlockES3_ET0_T_S5_S4_.exit.i27

_ZSt4moveIPPN4llvm10BasicBlockES3_ET0_T_S5_S4_.exit.i27: ; preds = %46, %._crit_edge.i22
  %.not.i.i.i.i.i21.i28 = icmp eq ptr %1, %.019.lcssa.i23
  br i1 %.not.i.i.i.i.i21.i28, label %"_ZSt12__move_mergeIPPN4llvm10BasicBlockES3_N9__gnu_cxx5__ops15_Iter_comp_iterIZL24rebuildLoopAfterUnswitchRNS0_4LoopENS0_8ArrayRefIS2_EERNS0_8LoopInfoERNS0_15SmallVectorImplIPS7_EEPNS0_15ScalarEvolutionEE3$_2EEET0_T_SM_SM_SM_SL_T1_.exit41", label %47

47:                                               ; preds = %_ZSt4moveIPPN4llvm10BasicBlockES3_ET0_T_S5_S4_.exit.i27
  %48 = ptrtoint ptr %.019.lcssa.i23 to i64
  %49 = sub i64 %7, %48
  %50 = getelementptr inbounds i8, ptr %.0.lcssa.i25, i64 %45
  tail call void @llvm.memmove.p0.p0.i64(ptr align 8 %50, ptr align 8 %.019.lcssa.i23, i64 %49, i1 false)
  br label %"_ZSt12__move_mergeIPPN4llvm10BasicBlockES3_N9__gnu_cxx5__ops15_Iter_comp_iterIZL24rebuildLoopAfterUnswitchRNS0_4LoopENS0_8ArrayRefIS2_EERNS0_8LoopInfoERNS0_15SmallVectorImplIPS7_EEPNS0_15ScalarEvolutionEE3$_2EEET0_T_SM_SM_SM_SL_T1_.exit41"

"_ZSt12__move_mergeIPPN4llvm10BasicBlockES3_N9__gnu_cxx5__ops15_Iter_comp_iterIZL24rebuildLoopAfterUnswitchRNS0_4LoopENS0_8ArrayRefIS2_EERNS0_8LoopInfoERNS0_15SmallVectorImplIPS7_EEPNS0_15ScalarEvolutionEE3$_2EEET0_T_SM_SM_SM_SL_T1_.exit41": ; preds = %_ZSt4moveIPPN4llvm10BasicBlockES3_ET0_T_S5_S4_.exit.i27, %47
  ret void
}